target datalayout = "e-m:e-p270:32:32-p271:32:32-p272:64:64-i64:64-i128:128-f80:128-n8:16:32:64-S128"
target triple = "x86_64-pc-linux-gnu"

%struct.Dar_Cut_t_ = type { i32, i32, [4 x i32] }

@.str = private unnamed_addr constant [2 x i8] c"{\00", align 1
@.str.1 = private unnamed_addr constant [4 x i8] c" %d\00", align 1
@.str.2 = private unnamed_addr constant [4 x i8] c" }\0A\00", align 1

; Function Attrs: nounwind uwtable
define void @Dar_CutPrint(ptr noundef %0) #0 {
  %2 = alloca ptr, align 8
  %3 = alloca i32, align 4
  store ptr %0, ptr %2, align 8, !tbaa !3
  call void @llvm.lifetime.start.p0(i64 4, ptr %3) #8
  %4 = call i32 (ptr, ...) @printf(ptr noundef @.str)
  store i32 0, ptr %3, align 4, !tbaa !8
  br label %5

5:                                                ; preds = %20, %1
  %6 = load i32, ptr %3, align 4, !tbaa !8
  %7 = load ptr, ptr %2, align 8, !tbaa !3
  %8 = getelementptr inbounds nuw %struct.Dar_Cut_t_, ptr %7, i32 0, i32 1
  %9 = load i32, ptr %8, align 4
  %10 = lshr i32 %9, 29
  %11 = icmp ult i32 %6, %10
  br i1 %11, label %12, label %23

12:                                               ; preds = %5
  %13 = load ptr, ptr %2, align 8, !tbaa !3
  %14 = getelementptr inbounds nuw %struct.Dar_Cut_t_, ptr %13, i32 0, i32 2
  %15 = load i32, ptr %3, align 4, !tbaa !8
  %16 = zext i32 %15 to i64
  %17 = getelementptr inbounds nuw [4 x i32], ptr %14, i64 0, i64 %16
  %18 = load i32, ptr %17, align 4, !tbaa !8
  %19 = call i32 (ptr, ...) @printf(ptr noundef @.str.1, i32 noundef %18)
  br label %20

20:                                               ; preds = %12
  %21 = load i32, ptr %3, align 4, !tbaa !8
  %22 = add i32 %21, 1
  store i32 %22, ptr %3, align 4, !tbaa !8
  br label %5, !llvm.loop !10

23:                                               ; preds = %5
  %24 = call i32 (ptr, ...) @printf(ptr noundef @.str.2)
  call void @llvm.lifetime.end.p0(i64 4, ptr %3) #8
  ret void
}