; Function Attrs: nofree nounwind uwtable
define void @Dar_CutPrint(ptr noundef readonly captures(none) %0) local_unnamed_addr #0 {
  %putchar = tail call i32 @putchar(i32 123)
  %2 = getelementptr inbounds nuw i8, ptr %0, i64 4
  %3 = load i32, ptr %2, align 4
  %.not = icmp ult i32 %3, 536870912
  br i1 %.not, label %._crit_edge, label %.lr.ph

.lr.ph:                                           ; preds = %1
  %4 = getelementptr inbounds nuw i8, ptr %0, i64 8
  br label %5

5:                                                ; preds = %.lr.ph, %5
  %indvars.iv = phi i64 [ 0, %.lr.ph ], [ %indvars.iv.next, %5 ]
  %6 = getelementptr inbounds nuw [4 x i32], ptr %4, i64 0, i64 %indvars.iv
  %7 = load i32, ptr %6, align 4, !tbaa !3
  %8 = tail call i32 (ptr, ...) @printf(ptr noundef nonnull dereferenceable(1) @.str.1, i32 noundef %7)
  %indvars.iv.next = add nuw nsw i64 %indvars.iv, 1
  %9 = load i32, ptr %2, align 4
  %10 = lshr i32 %9, 29
  %11 = zext nneg i32 %10 to i64
  %12 = icmp samesign ult i64 %indvars.iv.next, %11
  br i1 %12, label %5, label %._crit_edge, !llvm.loop !7

._crit_edge:                                      ; preds = %5, %1
  %puts = tail call i32 @puts(ptr nonnull dereferenceable(1) @str)
  ret void
}